target datalayout = "e-m:e-p270:32:32-p271:32:32-p272:64:64-i64:64-i128:128-f80:128-n8:16:32:64-S128"
target triple = "x86_64-pc-linux-gnu"

%struct._packet_info = type { ptr, ptr, i32, i32, %struct.nstime_t, %struct.nstime_t, %struct.nstime_t, i8, ptr, ptr, ptr, ptr, %struct._address, %struct._address, %struct._address, %struct._address, %struct._address, %struct._address, i32, ptr, i8, [3 x i8], %struct.anon, i32, i32, i32, i32, ptr, i8, ptr, ptr, i16, i16, i32, i32, i16, i32, i32, ptr, ptr, ptr, i8, i8, i16, i16, i16, i32, i16, i16, ptr, ptr, ptr, ptr, ptr, i32, i32 }
%struct.nstime_t = type { i64, i32 }
%struct._address = type { i32, i32, ptr, ptr }
%struct.anon = type { i8, [3 x i8] }
%struct._urb_info_t = type { i16, i16, i8, i32, i8, i32, i8, i8, i8, i32, ptr, ptr }
%struct._usb_setup_dissector_table_t = type { i8, ptr }
%struct._usb_trans_info_t = type { i32, i32, %struct.nstime_t, i32, %struct._usb_setup, %union.anon, i8, ptr, i64 }
%struct._usb_setup = type { i8, i8, i16, i16, i16 }
%union.anon = type { %struct.anon.0 }
%struct.anon.0 = type { i8, i8 }

@hf_usb_vid_request = internal global i32 0, align 4
@.str.409 = private unnamed_addr constant [9 x i8] c"USBVIDEO\00", align 1
@.str.548 = private unnamed_addr constant [6 x i8] c"%s %s\00", align 1
@.str.549 = private unnamed_addr constant [16 x i8] c"Unknown type %x\00", align 1
@.str.550 = private unnamed_addr constant [9 x i8] c"Request \00", align 1
@.str.551 = private unnamed_addr constant [9 x i8] c"Response\00", align 1

; Function Attrs: null_pointer_is_valid sspstrong uwtable
define internal i32 @dissect_usb_vid_control(ptr noundef %0, ptr noundef %1, ptr noundef %2, ptr noundef %3) #0 {
  %5 = alloca i32, align 4
  %6 = alloca ptr, align 8
  %7 = alloca ptr, align 8
  %8 = alloca ptr, align 8
  %9 = alloca ptr, align 8
  %10 = alloca i8, align 1
  %11 = alloca ptr, align 8
  %12 = alloca ptr, align 8
  %13 = alloca i32, align 4
  %14 = alloca ptr, align 8
  %15 = alloca ptr, align 8
  %16 = alloca i32, align 4
  store ptr %0, ptr %6, align 8
  store ptr %1, ptr %7, align 8
  store ptr %2, ptr %8, align 8
  store ptr %3, ptr %9, align 8
  call void @llvm.lifetime.start.p0(i64 1, ptr %10) #6
  %17 = load ptr, ptr %7, align 8
  %18 = getelementptr inbounds nuw %struct._packet_info, ptr %17, i32 0, i32 24
  %19 = load i32, ptr %18, align 4
  %20 = icmp eq i32 %19, -1
  %21 = zext i1 %20 to i8
  store i8 %21, ptr %10, align 1
  call void @llvm.lifetime.start.p0(i64 8, ptr %11) #6
  %22 = load ptr, ptr %9, align 8
  store ptr %22, ptr %11, align 8
  call void @llvm.lifetime.start.p0(i64 8, ptr %12) #6
  call void @llvm.lifetime.start.p0(i64 4, ptr %13) #6
  store i32 0, ptr %13, align 4
  call void @llvm.lifetime.start.p0(i64 8, ptr %14) #6
  store ptr null, ptr %14, align 8
  call void @llvm.lifetime.start.p0(i64 8, ptr %15) #6
  %23 = load ptr, ptr %11, align 8
  %24 = icmp eq ptr %23, null
  br i1 %24, label %35, label %25

25:                                               ; preds = %4
  %26 = load ptr, ptr %11, align 8
  %27 = getelementptr inbounds nuw %struct._urb_info_t, ptr %26, i32 0, i32 11
  %28 = load ptr, ptr %27, align 8
  %29 = icmp eq ptr %28, null
  br i1 %29, label %35, label %30

30:                                               ; preds = %25
  %31 = load ptr, ptr %11, align 8
  %32 = getelementptr inbounds nuw %struct._urb_info_t, ptr %31, i32 0, i32 10
  %33 = load ptr, ptr %32, align 8
  %34 = icmp eq ptr %33, null
  br i1 %34, label %35, label %36

35:                                               ; preds = %30, %25, %4
  store i32 0, ptr %5, align 4
  store i32 1, ptr %16, align 4
  br label %106

36:                                               ; preds = %30
  %37 = load ptr, ptr %11, align 8
  %38 = getelementptr inbounds nuw %struct._urb_info_t, ptr %37, i32 0, i32 10
  %39 = load ptr, ptr %38, align 8
  store ptr %39, ptr %12, align 8
  store ptr @setup_dissectors, ptr %15, align 8
  br label %40

40:                                               ; preds = %61, %36
  %41 = load ptr, ptr %15, align 8
  %42 = getelementptr inbounds nuw %struct._usb_setup_dissector_table_t, ptr %41, i32 0, i32 1
  %43 = load ptr, ptr %42, align 8
  %44 = icmp ne ptr %43, null
  br i1 %44, label %45, label %64

45:                                               ; preds = %40
  %46 = load ptr, ptr %15, align 8
  %47 = getelementptr inbounds nuw %struct._usb_setup_dissector_table_t, ptr %46, i32 0, i32 0
  %48 = load i8, ptr %47, align 8
  %49 = zext i8 %48 to i32
  %50 = load ptr, ptr %12, align 8
  %51 = getelementptr inbounds nuw %struct._usb_trans_info_t, ptr %50, i32 0, i32 4
  %52 = getelementptr inbounds nuw %struct._usb_setup, ptr %51, i32 0, i32 1
  %53 = load i8, ptr %52, align 1
  %54 = zext i8 %53 to i32
  %55 = icmp eq i32 %49, %54
  br i1 %55, label %56, label %60

56:                                               ; preds = %45
  %57 = load ptr, ptr %15, align 8
  %58 = getelementptr inbounds nuw %struct._usb_setup_dissector_table_t, ptr %57, i32 0, i32 1
  %59 = load ptr, ptr %58, align 8
  store ptr %59, ptr %14, align 8
  br label %64

60:                                               ; preds = %45
  br label %61

61:                                               ; preds = %60
  %62 = load ptr, ptr %15, align 8
  %63 = getelementptr %struct._usb_setup_dissector_table_t, ptr %62, i32 1
  store ptr %63, ptr %15, align 8
  br label %40, !llvm.loop !6

64:                                               ; preds = %56, %40
  %65 = load ptr, ptr %14, align 8
  %66 = icmp ne ptr %65, null
  br i1 %66, label %68, label %67

67:                                               ; preds = %64
  store i32 0, ptr %5, align 4
  store i32 1, ptr %16, align 4
  br label %106

68:                                               ; preds = %64
  %69 = load ptr, ptr %7, align 8
  %70 = getelementptr inbounds nuw %struct._packet_info, ptr %69, i32 0, i32 1
  %71 = load ptr, ptr %70, align 8
  call void @col_set_str(ptr noundef %71, i32 noundef 35, ptr noundef @.str.409)
  %72 = load ptr, ptr %7, align 8
  %73 = getelementptr inbounds nuw %struct._packet_info, ptr %72, i32 0, i32 1
  %74 = load ptr, ptr %73, align 8
  %75 = load ptr, ptr %12, align 8
  %76 = getelementptr inbounds nuw %struct._usb_trans_info_t, ptr %75, i32 0, i32 4
  %77 = getelementptr inbounds nuw %struct._usb_setup, ptr %76, i32 0, i32 1
  %78 = load i8, ptr %77, align 1
  %79 = zext i8 %78 to i32
  %80 = call ptr @val_to_str(i32 noundef %79, ptr noundef @setup_request_names_vals, ptr noundef @.str.549)
  %81 = load i8, ptr %10, align 1, !range !8, !noundef !9
  %82 = trunc i8 %81 to i1
  %83 = select i1 %82, ptr @.str.550, ptr @.str.551
  call void (ptr, i32, ptr, ...) @col_add_fstr(ptr noundef %74, i32 noundef 25, ptr noundef @.str.548, ptr noundef %80, ptr noundef %83)
  %84 = load i8, ptr %10, align 1, !range !8, !noundef !9
  %85 = trunc i8 %84 to i1
  br i1 %85, label %86, label %94

86:                                               ; preds = %68
  %87 = load ptr, ptr %8, align 8
  %88 = load i32, ptr @hf_usb_vid_request, align 4
  %89 = load ptr, ptr %6, align 8
  %90 = load i32, ptr %13, align 4
  %91 = call ptr @proto_tree_add_item(ptr noundef %87, i32 noundef %88, ptr noundef %89, i32 noundef %90, i32 noundef 1, i32 noundef -2147483648)
  %92 = load i32, ptr %13, align 4
  %93 = add i32 %92, 1
  store i32 %93, ptr %13, align 4
  br label %94

94:                                               ; preds = %86, %68
  %95 = load ptr, ptr %14, align 8
  %96 = load ptr, ptr %7, align 8
  %97 = load ptr, ptr %8, align 8
  %98 = load ptr, ptr %6, align 8
  %99 = load i32, ptr %13, align 4
  %100 = load i8, ptr %10, align 1, !range !8, !noundef !9
  %101 = trunc i8 %100 to i1
  %102 = load ptr, ptr %12, align 8
  %103 = load ptr, ptr %11, align 8
  %104 = call i32 %95(ptr noundef %96, ptr noundef %97, ptr noundef %98, i32 noundef %99, i1 noundef zeroext %101, ptr noundef %102, ptr noundef %103)
  store i32 %104, ptr %13, align 4
  %105 = load i32, ptr %13, align 4
  store i32 %105, ptr %5, align 4
  store i32 1, ptr %16, align 4
  br label %106

106:                                              ; preds = %94, %67, %35
  call void @llvm.lifetime.end.p0(i64 8, ptr %15) #6
  call void @llvm.lifetime.end.p0(i64 8, ptr %14) #6
  call void @llvm.lifetime.end.p0(i64 4, ptr %13) #6
  call void @llvm.lifetime.end.p0(i64 8, ptr %12) #6
  call void @llvm.lifetime.end.p0(i64 8, ptr %11) #6
  call void @llvm.lifetime.end.p0(i64 1, ptr %10) #6
  %107 = load i32, ptr %5, align 4
  ret i32 %107
}