; Function Attrs: null_pointer_is_valid sspstrong uwtable
define internal i32 @dissect_usb_vid_control(ptr noundef %0, ptr noundef %1, ptr noundef %2, ptr noundef %3) #0 {
  %5 = getelementptr inbounds nuw i8, ptr %1, i64 284
  %6 = load i32, ptr %5, align 4
  %7 = icmp eq i32 %6, -1
  %8 = icmp eq ptr %3, null
  br i1 %8, label %.thread, label %9

9:                                                ; preds = %4
  %10 = getelementptr inbounds nuw i8, ptr %3, i64 40
  %11 = load ptr, ptr %10, align 8
  %12 = icmp eq ptr %11, null
  br i1 %12, label %.thread, label %13

13:                                               ; preds = %9
  %14 = getelementptr inbounds nuw i8, ptr %3, i64 32
  %15 = load ptr, ptr %14, align 8
  %16 = icmp eq ptr %15, null
  br i1 %16, label %.thread, label %.preheader

.preheader:                                       ; preds = %13
  %17 = getelementptr inbounds nuw i8, ptr %15, i64 29
  %18 = load i8, ptr %17, align 1
  %19 = icmp eq i8 %18, 1
  br i1 %19, label %._crit_edge, label %.lr.ph

.lr.ph:                                           ; preds = %.preheader, %22
  %.04044 = phi ptr [ %23, %22 ], [ @setup_dissectors, %.preheader ]
  %20 = getelementptr i8, ptr %.04044, i64 24
  %21 = load ptr, ptr %20, align 8
  %.not = icmp eq ptr %21, null
  br i1 %.not, label %.thread, label %22, !llvm.loop !6

22:                                               ; preds = %.lr.ph
  %23 = getelementptr i8, ptr %.04044, i64 16
  %24 = load i8, ptr %23, align 8
  %25 = icmp eq i8 %24, %18
  br i1 %25, label %._crit_edge, label %.lr.ph, !llvm.loop !6

._crit_edge:                                      ; preds = %22, %.preheader
  %.lcssa = phi ptr [ @dissect_usb_vid_get_set, %.preheader ], [ %21, %22 ]
  %26 = getelementptr inbounds nuw i8, ptr %1, i64 8
  %27 = load ptr, ptr %26, align 8
  tail call void @col_set_str(ptr noundef %27, i32 noundef 35, ptr noundef nonnull @.str.409)
  %28 = load ptr, ptr %26, align 8
  %29 = load i8, ptr %17, align 1
  %30 = zext i8 %29 to i32
  %31 = tail call ptr @val_to_str(i32 noundef %30, ptr noundef nonnull @setup_request_names_vals, ptr noundef nonnull @.str.549)
  %32 = select i1 %7, ptr @.str.550, ptr @.str.551
  tail call void (ptr, i32, ptr, ...) @col_add_fstr(ptr noundef %28, i32 noundef 25, ptr noundef nonnull @.str.548, ptr noundef %31, ptr noundef nonnull %32)
  br i1 %7, label %33, label %36

33:                                               ; preds = %._crit_edge
  %34 = load i32, ptr @hf_usb_vid_request, align 4
  %35 = tail call ptr @proto_tree_add_item(ptr noundef %2, i32 noundef %34, ptr noundef %0, i32 noundef 0, i32 noundef 1, i32 noundef -2147483648)
  br label %36

36:                                               ; preds = %33, %._crit_edge
  %.031 = phi i32 [ 1, %33 ], [ 0, %._crit_edge ]
  %37 = tail call i32 %.lcssa(ptr noundef %1, ptr noundef %2, ptr noundef %0, i32 noundef %.031, i1 noundef zeroext %7, ptr noundef nonnull %15, ptr noundef nonnull %3)
  br label %.thread

.thread:                                          ; preds = %.lr.ph, %4, %9, %13, %36
  %.032 = phi i32 [ %37, %36 ], [ 0, %13 ], [ 0, %9 ], [ 0, %4 ], [ 0, %.lr.ph ]
  ret i32 %.032
}